; ModuleID = 'source-C-CXX/57/164.c'
source_filename = "source-C-CXX/57/164.c"
target datalayout = "e-m:e-p270:32:32-p271:32:32-p272:64:64-i64:64-f80:128-n8:16:32:64-S128"
target triple = "x86_64-pc-linux-gnu"

%struct._IO_FILE = type { i32, i8*, i8*, i8*, i8*, i8*, i8*, i8*, i8*, i8*, i8*, i8*, %struct._IO_marker*, %struct._IO_FILE*, i32, i32, i64, i16, i8, [1 x i8], i8*, i64, %struct._IO_codecvt*, %struct._IO_wide_data*, %struct._IO_FILE*, i8*, i64, i32, [20 x i8] }
%struct._IO_marker = type opaque
%struct._IO_codecvt = type opaque
%struct._IO_wide_data = type opaque

@.str = private unnamed_addr constant [4 x i8] c"%d\0A\00", align 1
@stdin = external local_unnamed_addr global %struct._IO_FILE*, align 8

; Function Attrs: nounwind sspstrong uwtable
define dso_local i32 @main() local_unnamed_addr #0 {
  %1 = alloca [100 x i8], align 16
  %2 = alloca [100 x i8], align 16
  %3 = getelementptr inbounds [100 x i8], [100 x i8]* %1, i64 0, i64 0
  call void @llvm.lifetime.start.p0i8(i64 100, i8* nonnull %3) #6
  %4 = getelementptr inbounds [100 x i8], [100 x i8]* %2, i64 0, i64 0
  call void @llvm.lifetime.start.p0i8(i64 100, i8* nonnull %4) #6
  %5 = call i32 (i8*, ...) bitcast (i32 (...)* @gets to i32 (i8*, ...)*)(i8* nonnull %4) #6
  %6 = call i64 @strtol(i8* nocapture nonnull %4, i8** null, i32 10) #6
  %7 = trunc i64 %6 to i32
  %8 = icmp sgt i32 %7, 0
  br i1 %8, label %9, label %59

9:                                                ; preds = %0, %54
  %10 = phi i32 [ %57, %54 ], [ 0, %0 ]
  %11 = call i32 (i8*, ...) bitcast (i32 (...)* @gets to i32 (i8*, ...)*)(i8* nonnull %3) #6
  %12 = call i64 @strlen(i8* noundef nonnull %3) #7
  %13 = trunc i64 %12 to i32
  %14 = load i8, i8* %3, align 16, !tbaa !5
  %15 = icmp eq i8 %14, 95
  %16 = and i8 %14, -33
  %17 = add i8 %16, -65
  %18 = icmp ult i8 %17, 26
  %19 = or i1 %18, %15
  br i1 %19, label %20, label %54

20:                                               ; preds = %9
  %21 = icmp sgt i32 %13, 0
  br i1 %21, label %22, label %50

22:                                               ; preds = %20
  %23 = and i64 %12, 4294967295
  %24 = icmp eq i8 %14, 95
  %25 = and i8 %14, -33
  %26 = add i8 %25, -65
  %27 = icmp ult i8 %26, 26
  %28 = or i1 %27, %24
  %29 = add i8 %14, -48
  %30 = icmp ult i8 %29, 10
  %31 = or i1 %28, %30
  br i1 %31, label %32, label %47

32:                                               ; preds = %22, %36
  %33 = phi i64 [ %34, %36 ], [ 0, %22 ]
  %34 = add nuw nsw i64 %33, 1
  %35 = icmp eq i64 %34, %23
  br i1 %35, label %54, label %36, !llvm.loop !8

36:                                               ; preds = %32
  %37 = getelementptr inbounds [100 x i8], [100 x i8]* %1, i64 0, i64 %34
  %38 = load i8, i8* %37, align 1, !tbaa !5
  %39 = icmp eq i8 %38, 95
  %40 = and i8 %38, -33
  %41 = add i8 %40, -65
  %42 = icmp ult i8 %41, 26
  %43 = or i1 %42, %39
  %44 = add i8 %38, -48
  %45 = icmp ult i8 %44, 10
  %46 = or i1 %43, %45
  br i1 %46, label %32, label %47

47:                                               ; preds = %36, %22
  %48 = phi i64 [ 0, %22 ], [ %34, %36 ]
  %49 = trunc i64 %48 to i32
  br label %50

50:                                               ; preds = %47, %20
  %51 = phi i32 [ 0, %20 ], [ %49, %47 ]
  %52 = icmp eq i32 %51, %13
  %53 = zext i1 %52 to i32
  br label %54

54:                                               ; preds = %32, %50, %9
  %55 = phi i32 [ 0, %9 ], [ %53, %50 ], [ 1, %32 ]
  %56 = call i32 (i8*, ...) @printf(i8* nonnull dereferenceable(1) getelementptr inbounds ([4 x i8], [4 x i8]* @.str, i64 0, i64 0), i32 %55)
  %57 = add nuw nsw i32 %10, 1
  %58 = icmp eq i32 %57, %7
  br i1 %58, label %59, label %9, !llvm.loop !10

59:                                               ; preds = %54, %0
  %60 = load %struct._IO_FILE*, %struct._IO_FILE** @stdin, align 8, !tbaa !11
  %61 = call i32 @getc(%struct._IO_FILE* %60) #6
  %62 = load %struct._IO_FILE*, %struct._IO_FILE** @stdin, align 8, !tbaa !11
  %63 = call i32 @getc(%struct._IO_FILE* %62) #6
  call void @llvm.lifetime.end.p0i8(i64 100, i8* nonnull %4) #6
  call void @llvm.lifetime.end.p0i8(i64 100, i8* nonnull %3) #6
  ret i32 0
}

; Function Attrs: argmemonly mustprogress nofree nosync nounwind willreturn
declare void @llvm.lifetime.start.p0i8(i64 immarg, i8* nocapture) #1

declare i32 @gets(...) local_unnamed_addr #2

; Function Attrs: argmemonly mustprogress nofree nounwind readonly willreturn
declare i64 @strlen(i8* nocapture) local_unnamed_addr #3

; Function Attrs: nofree nounwind
declare noundef i32 @printf(i8* nocapture noundef readonly, ...) local_unnamed_addr #4

; Function Attrs: argmemonly mustprogress nofree nosync nounwind willreturn
declare void @llvm.lifetime.end.p0i8(i64 immarg, i8* nocapture) #1

; Function Attrs: mustprogress nofree nounwind willreturn
declare i64 @strtol(i8* readonly, i8** nocapture, i32) local_unnamed_addr #5

; Function Attrs: nofree nounwind
declare noundef i32 @getc(%struct._IO_FILE* nocapture noundef) local_unnamed_addr #4


!llvm.module.flags = !{!0, !1, !2, !3}
!llvm.ident = !{!4}

!0 = !{i32 1, !"wchar_size", i32 4}
!1 = !{i32 7, !"PIC Level", i32 2}
!2 = !{i32 7, !"PIE Level", i32 2}
!3 = !{i32 7, !"uwtable", i32 1}
!4 = !{!"clang version 13.0.0"}
!5 = !{!6, !6, i64 0}
!6 = !{!"omnipotent char", !7, i64 0}
!7 = !{!"Simple C/C++ TBAA"}
!8 = distinct !{!8, !9}
!9 = !{!"llvm.loop.mustprogress"}
!10 = distinct !{!10, !9}
!11 = !{!12, !12, i64 0}
!12 = !{!"any pointer", !6, i64 0}
